target datalayout = "e-m:e-p270:32:32-p271:32:32-p272:64:64-i64:64-i128:128-f80:128-n8:16:32:64-S128"
target triple = "x86_64-pc-linux-gnu"

%struct._php_password_algo = type { ptr, ptr, ptr, ptr, ptr, ptr }
%struct._zval_struct = type { %union._zend_value, %union.anon.3, %union.anon.6 }
%union._zend_value = type { i64 }
%union.anon.3 = type { i32 }
%union.anon.6 = type { i32 }
%struct._zend_execute_data = type { ptr, ptr, ptr, ptr, %struct._zval_struct, ptr, ptr, ptr, ptr }

@php_password_algo_bcrypt = hidden constant %struct._php_password_algo { ptr @.str, ptr @php_password_bcrypt_hash, ptr @php_password_bcrypt_verify, ptr @php_password_bcrypt_needs_rehash, ptr @php_password_bcrypt_get_info, ptr @php_password_bcrypt_valid }, align 8

; Function Attrs: nounwind uwtable
define dso_local ptr @php_password_algo_default() #0 {
  ret ptr @php_password_algo_bcrypt
}

; Function Attrs: nounwind uwtable
define internal ptr @php_password_algo_identify(ptr noundef %0) #0 {
  %2 = alloca ptr, align 8
  store ptr %0, ptr %2, align 8
  %3 = load ptr, ptr %2, align 8
  %4 = call ptr @php_password_algo_default()
  %5 = call ptr @php_password_algo_identify_ex(ptr noundef %3, ptr noundef %4)
  ret ptr %5
}

; Function Attrs: nounwind uwtable
define hidden void @zif_password_verify(ptr noundef %0, ptr noundef %1) #0 {
  %3 = alloca ptr, align 8
  %4 = alloca ptr, align 8
  %5 = alloca i1, align 1
  %6 = alloca ptr, align 8
  %7 = alloca ptr, align 8
  %8 = alloca i8, align 1
  %9 = alloca i32, align 4
  %10 = alloca i8, align 1
  %11 = alloca ptr, align 8
  %12 = alloca ptr, align 8
  %13 = alloca i1, align 1
  %14 = alloca ptr, align 8
  %15 = alloca ptr, align 8
  %16 = alloca i8, align 1
  %17 = alloca i32, align 4
  %18 = alloca i8, align 1
  %19 = alloca ptr, align 8
  %20 = alloca ptr, align 8
  %21 = alloca i8, align 1
  %22 = alloca i32, align 4
  %23 = alloca ptr, align 8
  %24 = alloca ptr, align 8
  %25 = alloca i8, align 1
  %26 = alloca i32, align 4
  %27 = alloca ptr, align 8
  %28 = alloca ptr, align 8
  %29 = alloca ptr, align 8
  %30 = alloca ptr, align 8
  %31 = alloca ptr, align 8
  %32 = alloca i32, align 4
  %33 = alloca i32, align 4
  %34 = alloca i32, align 4
  %35 = alloca i32, align 4
  %36 = alloca i32, align 4
  %37 = alloca ptr, align 8
  %38 = alloca ptr, align 8
  %39 = alloca i32, align 4
  %40 = alloca ptr, align 8
  %41 = alloca i8, align 1
  %42 = alloca i8, align 1
  %43 = alloca i32, align 4
  store ptr %0, ptr %27, align 8
  store ptr %1, ptr %28, align 8
  br label %44

44:                                               ; preds = %2
  store i32 0, ptr %32, align 4
  store i32 2, ptr %33, align 4
  store i32 2, ptr %34, align 4
  %45 = load ptr, ptr %27, align 8
  %46 = getelementptr inbounds %struct._zend_execute_data, ptr %45, i32 0, i32 4
  %47 = getelementptr inbounds %struct._zval_struct, ptr %46, i32 0, i32 2
  %48 = load i32, ptr %47, align 4
  store i32 %48, ptr %35, align 4
  store i32 0, ptr %36, align 4
  store ptr null, ptr %38, align 8
  store i32 0, ptr %39, align 4
  store ptr null, ptr %40, align 8
  store i8 0, ptr %41, align 1
  store i8 0, ptr %42, align 1
  store i32 0, ptr %43, align 4
  br label %49

49:                                               ; preds = %44
  %50 = load i32, ptr %35, align 4
  %51 = load i32, ptr %33, align 4
  %52 = icmp ult i32 %50, %51
  %53 = xor i1 %52, true
  %54 = xor i1 %53, true
  %55 = zext i1 %54 to i32
  %56 = sext i32 %55 to i64
  %57 = icmp ne i64 %56, 0
  br i1 %57, label %67, label %58

58:                                               ; preds = %49
  %59 = load i32, ptr %35, align 4
  %60 = load i32, ptr %34, align 4
  %61 = icmp ugt i32 %59, %60
  %62 = xor i1 %61, true
  %63 = xor i1 %62, true
  %64 = zext i1 %63 to i32
  %65 = sext i32 %64 to i64
  %66 = icmp ne i64 %65, 0
  br i1 %66, label %67, label %70

67:                                               ; preds = %58, %49
  %68 = load i32, ptr %33, align 4
  %69 = load i32, ptr %34, align 4
  call void @zend_wrong_parameters_count_error(i32 noundef %68, i32 noundef %69)
  store i32 1, ptr %43, align 4
  br label %267

70:                                               ; preds = %58
  %71 = load ptr, ptr %27, align 8
  %72 = getelementptr inbounds %struct._zval_struct, ptr %71, i64 4
  store ptr %72, ptr %37, align 8
  %73 = load i32, ptr %36, align 4
  %74 = add i32 %73, 1
  store i32 %74, ptr %36, align 4
  %75 = load i32, ptr %36, align 4
  %76 = load i32, ptr %33, align 4
  %77 = icmp ule i32 %75, %76
  br i1 %77, label %83, label %78

78:                                               ; preds = %70
  %79 = load i8, ptr %42, align 1
  %80 = trunc i8 %79 to i1
  %81 = zext i1 %80 to i32
  %82 = icmp eq i32 %81, 1
  br label %83

83:                                               ; preds = %78, %70
  %84 = phi i1 [ true, %70 ], [ %82, %78 ]
  call void @llvm.assume(i1 %84)
  %85 = load i32, ptr %36, align 4
  %86 = load i32, ptr %33, align 4
  %87 = icmp ugt i32 %85, %86
  br i1 %87, label %93, label %88

88:                                               ; preds = %83
  %89 = load i8, ptr %42, align 1
  %90 = trunc i8 %89 to i1
  %91 = zext i1 %90 to i32
  %92 = icmp eq i32 %91, 0
  br label %93

93:                                               ; preds = %88, %83
  %94 = phi i1 [ true, %83 ], [ %92, %88 ]
  call void @llvm.assume(i1 %94)
  %95 = load i8, ptr %42, align 1
  %96 = trunc i8 %95 to i1
  br i1 %96, label %97, label %108

97:                                               ; preds = %93
  %98 = load i32, ptr %36, align 4
  %99 = load i32, ptr %35, align 4
  %100 = icmp ugt i32 %98, %99
  %101 = xor i1 %100, true
  %102 = xor i1 %101, true
  %103 = zext i1 %102 to i32
  %104 = sext i32 %103 to i64
  %105 = icmp ne i64 %104, 0
  br i1 %105, label %106, label %107

106:                                              ; preds = %97
  br label %267

107:                                              ; preds = %97
  br label %108

108:                                              ; preds = %107, %93
  %109 = load ptr, ptr %37, align 8
  %110 = getelementptr inbounds %struct._zval_struct, ptr %109, i32 1
  store ptr %110, ptr %37, align 8
  %111 = load ptr, ptr %37, align 8
  store ptr %111, ptr %38, align 8
  %112 = load ptr, ptr %38, align 8
  %113 = load i32, ptr %36, align 4
  store ptr %112, ptr %19, align 8
  store ptr %29, ptr %20, align 8
  store i8 0, ptr %21, align 1
  store i32 %113, ptr %22, align 4
  %114 = load ptr, ptr %19, align 8
  %115 = load ptr, ptr %20, align 8
  %116 = load i8, ptr %21, align 1
  %117 = trunc i8 %116 to i1
  %118 = load i32, ptr %22, align 4
  store ptr %114, ptr %14, align 8
  store ptr %115, ptr %15, align 8
  %119 = zext i1 %117 to i8
  store i8 %119, ptr %16, align 1
  store i32 %118, ptr %17, align 4
  store i8 0, ptr %18, align 1
  %120 = load ptr, ptr %14, align 8
  store ptr %120, ptr %11, align 8
  %121 = load ptr, ptr %11, align 8
  %122 = getelementptr inbounds %struct._zval_struct, ptr %121, i32 0, i32 1
  %123 = load i8, ptr %122, align 8
  %124 = zext i8 %123 to i32
  %125 = icmp eq i32 %124, 6
  br i1 %125, label %126, label %130

126:                                              ; preds = %108
  %127 = load ptr, ptr %14, align 8
  %128 = load ptr, ptr %127, align 8
  %129 = load ptr, ptr %15, align 8
  store ptr %128, ptr %129, align 8
  br label %155

130:                                              ; preds = %108
  %131 = load i8, ptr %16, align 1
  %132 = trunc i8 %131 to i1
  br i1 %132, label %133, label %142

133:                                              ; preds = %130
  %134 = load ptr, ptr %14, align 8
  store ptr %134, ptr %12, align 8
  %135 = load ptr, ptr %12, align 8
  %136 = getelementptr inbounds %struct._zval_struct, ptr %135, i32 0, i32 1
  %137 = load i8, ptr %136, align 8
  %138 = zext i8 %137 to i32
  %139 = icmp eq i32 %138, 1
  br i1 %139, label %140, label %142

140:                                              ; preds = %133
  %141 = load ptr, ptr %15, align 8
  store ptr null, ptr %141, align 8
  br label %155

142:                                              ; preds = %133, %130
  %143 = load i8, ptr %18, align 1
  %144 = trunc i8 %143 to i1
  br i1 %144, label %145, label %150

145:                                              ; preds = %142
  %146 = load ptr, ptr %14, align 8
  %147 = load ptr, ptr %15, align 8
  %148 = load i32, ptr %17, align 4
  %149 = call zeroext i1 @zend_flf_parse_arg_str_slow(ptr noundef %146, ptr noundef %147, i32 noundef %148) #9
  store i1 %149, ptr %13, align 1
  br label %156

150:                                              ; preds = %142
  %151 = load ptr, ptr %14, align 8
  %152 = load ptr, ptr %15, align 8
  %153 = load i32, ptr %17, align 4
  %154 = call zeroext i1 @zend_parse_arg_str_slow(ptr noundef %151, ptr noundef %152, i32 noundef %153) #9
  store i1 %154, ptr %13, align 1
  br label %156

155:                                              ; preds = %140, %126
  store i1 true, ptr %13, align 1
  br label %156

156:                                              ; preds = %155, %150, %145
  %157 = load i1, ptr %13, align 1
  %158 = xor i1 %157, true
  %159 = xor i1 %158, true
  %160 = xor i1 %159, true
  %161 = zext i1 %160 to i32
  %162 = sext i32 %161 to i64
  %163 = icmp ne i64 %162, 0
  br i1 %163, label %164, label %165

164:                                              ; preds = %156
  store i32 4, ptr %39, align 4
  store i32 9, ptr %43, align 4
  br label %267

165:                                              ; preds = %156
  %166 = load i32, ptr %36, align 4
  %167 = add i32 %166, 1
  store i32 %167, ptr %36, align 4
  %168 = load i32, ptr %36, align 4
  %169 = load i32, ptr %33, align 4
  %170 = icmp ule i32 %168, %169
  br i1 %170, label %176, label %171

171:                                              ; preds = %165
  %172 = load i8, ptr %42, align 1
  %173 = trunc i8 %172 to i1
  %174 = zext i1 %173 to i32
  %175 = icmp eq i32 %174, 1
  br label %176

176:                                              ; preds = %171, %165
  %177 = phi i1 [ true, %165 ], [ %175, %171 ]
  call void @llvm.assume(i1 %177)
  %178 = load i32, ptr %36, align 4
  %179 = load i32, ptr %33, align 4
  %180 = icmp ugt i32 %178, %179
  br i1 %180, label %186, label %181

181:                                              ; preds = %176
  %182 = load i8, ptr %42, align 1
  %183 = trunc i8 %182 to i1
  %184 = zext i1 %183 to i32
  %185 = icmp eq i32 %184, 0
  br label %186

186:                                              ; preds = %181, %176
  %187 = phi i1 [ true, %176 ], [ %185, %181 ]
  call void @llvm.assume(i1 %187)
  %188 = load i8, ptr %42, align 1
  %189 = trunc i8 %188 to i1
  br i1 %189, label %190, label %201

190:                                              ; preds = %186
  %191 = load i32, ptr %36, align 4
  %192 = load i32, ptr %35, align 4
  %193 = icmp ugt i32 %191, %192
  %194 = xor i1 %193, true
  %195 = xor i1 %194, true
  %196 = zext i1 %195 to i32
  %197 = sext i32 %196 to i64
  %198 = icmp ne i64 %197, 0
  br i1 %198, label %199, label %200

199:                                              ; preds = %190
  br label %267

200:                                              ; preds = %190
  br label %201

201:                                              ; preds = %200, %186
  %202 = load ptr, ptr %37, align 8
  %203 = getelementptr inbounds %struct._zval_struct, ptr %202, i32 1
  store ptr %203, ptr %37, align 8
  %204 = load ptr, ptr %37, align 8
  store ptr %204, ptr %38, align 8
  %205 = load ptr, ptr %38, align 8
  %206 = load i32, ptr %36, align 4
  store ptr %205, ptr %23, align 8
  store ptr %30, ptr %24, align 8
  store i8 0, ptr %25, align 1
  store i32 %206, ptr %26, align 4
  %207 = load ptr, ptr %23, align 8
  %208 = load ptr, ptr %24, align 8
  %209 = load i8, ptr %25, align 1
  %210 = trunc i8 %209 to i1
  %211 = load i32, ptr %26, align 4
  store ptr %207, ptr %6, align 8
  store ptr %208, ptr %7, align 8
  %212 = zext i1 %210 to i8
  store i8 %212, ptr %8, align 1
  store i32 %211, ptr %9, align 4
  store i8 0, ptr %10, align 1
  %213 = load ptr, ptr %6, align 8
  store ptr %213, ptr %3, align 8
  %214 = load ptr, ptr %3, align 8
  %215 = getelementptr inbounds %struct._zval_struct, ptr %214, i32 0, i32 1
  %216 = load i8, ptr %215, align 8
  %217 = zext i8 %216 to i32
  %218 = icmp eq i32 %217, 6
  br i1 %218, label %219, label %223

219:                                              ; preds = %201
  %220 = load ptr, ptr %6, align 8
  %221 = load ptr, ptr %220, align 8
  %222 = load ptr, ptr %7, align 8
  store ptr %221, ptr %222, align 8
  br label %248

223:                                              ; preds = %201
  %224 = load i8, ptr %8, align 1
  %225 = trunc i8 %224 to i1
  br i1 %225, label %226, label %235

226:                                              ; preds = %223
  %227 = load ptr, ptr %6, align 8
  store ptr %227, ptr %4, align 8
  %228 = load ptr, ptr %4, align 8
  %229 = getelementptr inbounds %struct._zval_struct, ptr %228, i32 0, i32 1
  %230 = load i8, ptr %229, align 8
  %231 = zext i8 %230 to i32
  %232 = icmp eq i32 %231, 1
  br i1 %232, label %233, label %235

233:                                              ; preds = %226
  %234 = load ptr, ptr %7, align 8
  store ptr null, ptr %234, align 8
  br label %248

235:                                              ; preds = %226, %223
  %236 = load i8, ptr %10, align 1
  %237 = trunc i8 %236 to i1
  br i1 %237, label %238, label %243

238:                                              ; preds = %235
  %239 = load ptr, ptr %6, align 8
  %240 = load ptr, ptr %7, align 8
  %241 = load i32, ptr %9, align 4
  %242 = call zeroext i1 @zend_flf_parse_arg_str_slow(ptr noundef %239, ptr noundef %240, i32 noundef %241) #9
  store i1 %242, ptr %5, align 1
  br label %249

243:                                              ; preds = %235
  %244 = load ptr, ptr %6, align 8
  %245 = load ptr, ptr %7, align 8
  %246 = load i32, ptr %9, align 4
  %247 = call zeroext i1 @zend_parse_arg_str_slow(ptr noundef %244, ptr noundef %245, i32 noundef %246) #9
  store i1 %247, ptr %5, align 1
  br label %249

248:                                              ; preds = %233, %219
  store i1 true, ptr %5, align 1
  br label %249

249:                                              ; preds = %248, %243, %238
  %250 = load i1, ptr %5, align 1
  %251 = xor i1 %250, true
  %252 = xor i1 %251, true
  %253 = xor i1 %252, true
  %254 = zext i1 %253 to i32
  %255 = sext i32 %254 to i64
  %256 = icmp ne i64 %255, 0
  br i1 %256, label %257, label %258

257:                                              ; preds = %249
  store i32 4, ptr %39, align 4
  store i32 9, ptr %43, align 4
  br label %267

258:                                              ; preds = %249
  %259 = load i32, ptr %36, align 4
  %260 = load i32, ptr %34, align 4
  %261 = icmp eq i32 %259, %260
  br i1 %261, label %265, label %262

262:                                              ; preds = %258
  %263 = load i32, ptr %34, align 4
  %264 = icmp eq i32 %263, -1
  br label %265

265:                                              ; preds = %262, %258
  %266 = phi i1 [ true, %258 ], [ %264, %262 ]
  call void @llvm.assume(i1 %266)
  br label %267

267:                                              ; preds = %265, %257, %199, %164, %106, %67
  %268 = load i32, ptr %43, align 4
  %269 = icmp ne i32 %268, 0
  %270 = xor i1 %269, true
  %271 = xor i1 %270, true
  %272 = zext i1 %271 to i32
  %273 = sext i32 %272 to i64
  %274 = icmp ne i64 %273, 0
  br i1 %274, label %275, label %281

275:                                              ; preds = %267
  %276 = load i32, ptr %43, align 4
  %277 = load i32, ptr %36, align 4
  %278 = load ptr, ptr %40, align 8
  %279 = load i32, ptr %39, align 4
  %280 = load ptr, ptr %38, align 8
  call void @zend_wrong_parameter_error(i32 noundef %276, i32 noundef %277, ptr noundef %278, i32 noundef %279, ptr noundef %280)
  br label %309

281:                                              ; preds = %267
  br label %282

282:                                              ; preds = %281
  %283 = load ptr, ptr %30, align 8
  %284 = call ptr @php_password_algo_identify(ptr noundef %283)
  store ptr %284, ptr %31, align 8
  br label %285

285:                                              ; preds = %282
  br label %286

286:                                              ; preds = %285
  %287 = load ptr, ptr %31, align 8
  %288 = icmp ne ptr %287, null
  br i1 %288, label %289, label %303

289:                                              ; preds = %286
  %290 = load ptr, ptr %31, align 8
  %291 = getelementptr inbounds %struct._php_password_algo, ptr %290, i32 0, i32 2
  %292 = load ptr, ptr %291, align 8
  %293 = icmp ne ptr %292, null
  br i1 %293, label %294, label %301

294:                                              ; preds = %289
  %295 = load ptr, ptr %31, align 8
  %296 = getelementptr inbounds %struct._php_password_algo, ptr %295, i32 0, i32 2
  %297 = load ptr, ptr %296, align 8
  %298 = load ptr, ptr %29, align 8
  %299 = load ptr, ptr %30, align 8
  %300 = call zeroext i1 %297(ptr noundef %298, ptr noundef %299)
  br label %301

301:                                              ; preds = %294, %289
  %302 = phi i1 [ true, %289 ], [ %300, %294 ]
  br label %303

303:                                              ; preds = %301, %286
  %304 = phi i1 [ false, %286 ], [ %302, %301 ]
  %305 = select i1 %304, i32 3, i32 2
  %306 = load ptr, ptr %28, align 8
  %307 = getelementptr inbounds %struct._zval_struct, ptr %306, i32 0, i32 1
  store i32 %305, ptr %307, align 8
  br label %308

308:                                              ; preds = %303
  br label %309

309:                                              ; preds = %308, %275
  ret void
}