; Function Attrs: nounwind uwtable
define hidden void @zif_password_verify(ptr noundef %0, ptr nocapture noundef writeonly %1) local_unnamed_addr #0 {
  %3 = alloca ptr, align 8
  %4 = alloca ptr, align 8
  %5 = getelementptr inbounds i8, ptr %0, i64 44
  %6 = load i32, ptr %5, align 4
  %.not = icmp eq i32 %6, 2
  br i1 %.not, label %8, label %7

7:                                                ; preds = %2
  tail call void @zend_wrong_parameters_count_error(i32 noundef 2, i32 noundef 2) #12
  br label %.thread118

8:                                                ; preds = %2
  %9 = getelementptr inbounds i8, ptr %0, i64 80
  %10 = getelementptr inbounds i8, ptr %0, i64 88
  %11 = load i8, ptr %10, align 8
  %12 = icmp eq i8 %11, 6
  br i1 %12, label %.critedge, label %14

.critedge:                                        ; preds = %8
  %13 = load ptr, ptr %9, align 8
  store ptr %13, ptr %3, align 8
  br label %16

14:                                               ; preds = %8
  %15 = call zeroext i1 @zend_parse_arg_str_slow(ptr noundef nonnull %9, ptr noundef nonnull %3, i32 noundef 1) #12
  br i1 %15, label %16, label %.thread118

16:                                               ; preds = %14, %.critedge
  %17 = getelementptr inbounds i8, ptr %0, i64 96
  %18 = getelementptr inbounds i8, ptr %0, i64 104
  %19 = load i8, ptr %18, align 8
  %20 = icmp eq i8 %19, 6
  br i1 %20, label %.thread114, label %22

.thread114:                                       ; preds = %16
  %21 = load ptr, ptr %17, align 8
  store ptr %21, ptr %4, align 8
  br label %.thread130

22:                                               ; preds = %16
  %23 = call zeroext i1 @zend_parse_arg_str_slow(ptr noundef nonnull %17, ptr noundef nonnull %4, i32 noundef 2) #12
  %.fr = freeze i1 %23
  br i1 %.fr, label %..thread130_crit_edge, label %.thread118

..thread130_crit_edge:                            ; preds = %22
  %.pre = load ptr, ptr %4, align 8
  br label %.thread130

.thread118:                                       ; preds = %22, %14, %7
  %.0127 = phi i32 [ 9, %14 ], [ 1, %7 ], [ 9, %22 ]
  %.090126 = phi i32 [ 1, %14 ], [ 0, %7 ], [ 2, %22 ]
  %.091125 = phi i32 [ 4, %14 ], [ 0, %7 ], [ 4, %22 ]
  %.092124 = phi ptr [ %9, %14 ], [ null, %7 ], [ %17, %22 ]
  call void @zend_wrong_parameter_error(i32 noundef %.0127, i32 noundef %.090126, ptr noundef null, i32 noundef %.091125, ptr noundef %.092124) #12
  br label %37

.thread130:                                       ; preds = %..thread130_crit_edge, %.thread114
  %24 = phi ptr [ %.pre, %..thread130_crit_edge ], [ %21, %.thread114 ]
  %25 = call ptr @php_password_algo_identify_ex(ptr noundef %24, ptr noundef nonnull @php_password_algo_bcrypt)
  %.not99 = icmp eq ptr %25, null
  br i1 %.not99, label %34, label %26

26:                                               ; preds = %.thread130
  %27 = getelementptr inbounds i8, ptr %25, i64 16
  %28 = load ptr, ptr %27, align 8
  %.not100 = icmp eq ptr %28, null
  br i1 %.not100, label %34, label %29

29:                                               ; preds = %26
  %30 = load ptr, ptr %3, align 8
  %31 = load ptr, ptr %4, align 8
  %32 = call zeroext i1 %28(ptr noundef %30, ptr noundef %31) #12
  %33 = select i1 %32, i32 3, i32 2
  br label %34

34:                                               ; preds = %26, %29, %.thread130
  %35 = phi i32 [ 2, %.thread130 ], [ 3, %26 ], [ %33, %29 ]
  %36 = getelementptr inbounds i8, ptr %1, i64 8
  store i32 %35, ptr %36, align 8
  br label %37

37:                                               ; preds = %34, %.thread118
  ret void
}